target datalayout = "e-m:e-p270:32:32-p271:32:32-p272:64:64-i64:64-i128:128-f80:128-n8:16:32:64-S128"
target triple = "x86_64-pc-linux-gnu"

%"struct.std::_Vector_base" = type { %"struct.std::_Vector_base<cv::Point_<float>, std::allocator<cv::Point_<float>>>::_Vector_impl" }
%"struct.std::_Vector_base<cv::Point_<float>, std::allocator<cv::Point_<float>>>::_Vector_impl" = type { %"struct.std::_Vector_base<cv::Point_<float>, std::allocator<cv::Point_<float>>>::_Vector_impl_data" }
%"struct.std::_Vector_base<cv::Point_<float>, std::allocator<cv::Point_<float>>>::_Vector_impl_data" = type { ptr, ptr, ptr }
%"class.cv::Point_" = type { float, float }

; Function Attrs: mustprogress nounwind uwtable
define internal noundef i32 @_ZN20minEnclosingTriangleL4signEd(double noundef %0) #4 {
  %2 = alloca double, align 8
  store double %0, ptr %2, align 8, !tbaa !10
  %3 = load double, ptr %2, align 8, !tbaa !10
  %4 = fcmp ogt double %3, 0.000000e+00
  br i1 %4, label %5, label %6

5:                                                ; preds = %1
  br label %10

6:                                                ; preds = %1
  %7 = load double, ptr %2, align 8, !tbaa !10
  %8 = fcmp olt double %7, 0.000000e+00
  %9 = select i1 %8, i32 -1, i32 0
  br label %10

10:                                               ; preds = %6, %5
  %11 = phi i32 [ 1, %5 ], [ %9, %6 ]
  ret i32 %11
}

; Function Attrs: mustprogress uwtable
define internal noundef zeroext i1 @_ZN20minEnclosingTriangleL22areOnTheSameSideOfLineERKN2cv6Point_IfEES4_S4_S4_(ptr noundef nonnull align 4 dereferenceable(8) %0, ptr noundef nonnull align 4 dereferenceable(8) %1, ptr noundef nonnull align 4 dereferenceable(8) %2, ptr noundef nonnull align 4 dereferenceable(8) %3) #0 {
  %5 = alloca ptr, align 8
  %6 = alloca ptr, align 8
  %7 = alloca ptr, align 8
  %8 = alloca ptr, align 8
  %9 = alloca double, align 8
  %10 = alloca double, align 8
  %11 = alloca double, align 8
  %12 = alloca double, align 8
  %13 = alloca double, align 8
  store ptr %0, ptr %5, align 8, !tbaa !93
  store ptr %1, ptr %6, align 8, !tbaa !93
  store ptr %2, ptr %7, align 8, !tbaa !93
  store ptr %3, ptr %8, align 8, !tbaa !93
  call void @llvm.lifetime.start.p0(i64 8, ptr %9) #16
  call void @llvm.lifetime.start.p0(i64 8, ptr %10) #16
  call void @llvm.lifetime.start.p0(i64 8, ptr %11) #16
  %14 = load ptr, ptr %7, align 8, !tbaa !93
  %15 = load ptr, ptr %8, align 8, !tbaa !93
  call void @_ZN20minEnclosingTriangleL30lineEquationDeterminedByPointsERKN2cv6Point_IfEES4_RdS5_S5_(ptr noundef nonnull align 4 dereferenceable(8) %14, ptr noundef nonnull align 4 dereferenceable(8) %15, ptr noundef nonnull align 8 dereferenceable(8) %9, ptr noundef nonnull align 8 dereferenceable(8) %10, ptr noundef nonnull align 8 dereferenceable(8) %11)
  call void @llvm.lifetime.start.p0(i64 8, ptr %12) #16
  %16 = load double, ptr %9, align 8, !tbaa !10
  %17 = load ptr, ptr %5, align 8, !tbaa !93
  %18 = getelementptr inbounds nuw %"class.cv::Point_", ptr %17, i32 0, i32 0
  %19 = load float, ptr %18, align 4, !tbaa !94
  %20 = fpext float %19 to double
  %21 = load double, ptr %10, align 8, !tbaa !10
  %22 = load ptr, ptr %5, align 8, !tbaa !93
  %23 = getelementptr inbounds nuw %"class.cv::Point_", ptr %22, i32 0, i32 1
  %24 = load float, ptr %23, align 4, !tbaa !97
  %25 = fpext float %24 to double
  %26 = fmul double %21, %25
  %27 = call double @llvm.fmuladd.f64(double %16, double %20, double %26)
  %28 = load double, ptr %11, align 8, !tbaa !10
  %29 = fadd double %27, %28
  store double %29, ptr %12, align 8, !tbaa !10
  call void @llvm.lifetime.start.p0(i64 8, ptr %13) #16
  %30 = load double, ptr %9, align 8, !tbaa !10
  %31 = load ptr, ptr %6, align 8, !tbaa !93
  %32 = getelementptr inbounds nuw %"class.cv::Point_", ptr %31, i32 0, i32 0
  %33 = load float, ptr %32, align 4, !tbaa !94
  %34 = fpext float %33 to double
  %35 = load double, ptr %10, align 8, !tbaa !10
  %36 = load ptr, ptr %6, align 8, !tbaa !93
  %37 = getelementptr inbounds nuw %"class.cv::Point_", ptr %36, i32 0, i32 1
  %38 = load float, ptr %37, align 4, !tbaa !97
  %39 = fpext float %38 to double
  %40 = fmul double %35, %39
  %41 = call double @llvm.fmuladd.f64(double %30, double %34, double %40)
  %42 = load double, ptr %11, align 8, !tbaa !10
  %43 = fadd double %41, %42
  store double %43, ptr %13, align 8, !tbaa !10
  %44 = load double, ptr %12, align 8, !tbaa !10
  %45 = call noundef i32 @_ZN20minEnclosingTriangleL4signEd(double noundef %44)
  %46 = load double, ptr %13, align 8, !tbaa !10
  %47 = call noundef i32 @_ZN20minEnclosingTriangleL4signEd(double noundef %46)
  %48 = icmp eq i32 %45, %47
  call void @llvm.lifetime.end.p0(i64 8, ptr %13) #16
  call void @llvm.lifetime.end.p0(i64 8, ptr %12) #16
  call void @llvm.lifetime.end.p0(i64 8, ptr %11) #16
  call void @llvm.lifetime.end.p0(i64 8, ptr %10) #16
  call void @llvm.lifetime.end.p0(i64 8, ptr %9) #16
  ret i1 %48
}

; Function Attrs: mustprogress nounwind uwtable
define internal noundef i32 @_ZN20minEnclosingTriangleL9successorEjj(i32 noundef %0, i32 noundef %1) #4 {
  %3 = alloca i32, align 4
  %4 = alloca i32, align 4
  store i32 %0, ptr %3, align 4, !tbaa !80
  store i32 %1, ptr %4, align 4, !tbaa !80
  %5 = load i32, ptr %3, align 4, !tbaa !80
  %6 = add i32 %5, 1
  %7 = load i32, ptr %4, align 4, !tbaa !80
  %8 = urem i32 %6, %7
  ret i32 %8
}

; Function Attrs: mustprogress nounwind uwtable
define internal noundef i32 @_ZN20minEnclosingTriangleL11predecessorEjj(i32 noundef %0, i32 noundef %1) #4 {
  %3 = alloca i32, align 4
  %4 = alloca i32, align 4
  store i32 %0, ptr %3, align 4, !tbaa !80
  store i32 %1, ptr %4, align 4, !tbaa !80
  %5 = load i32, ptr %3, align 4, !tbaa !80
  %6 = icmp eq i32 %5, 0
  br i1 %6, label %7, label %10

7:                                                ; preds = %2
  %8 = load i32, ptr %4, align 4, !tbaa !80
  %9 = sub i32 %8, 1
  br label %13

10:                                               ; preds = %2
  %11 = load i32, ptr %3, align 4, !tbaa !80
  %12 = sub i32 %11, 1
  br label %13

13:                                               ; preds = %10, %7
  %14 = phi i32 [ %9, %7 ], [ %12, %10 ]
  ret i32 %14
}

; Function Attrs: mustprogress nounwind uwtable
define linkonce_odr hidden noundef nonnull align 4 dereferenceable(8) ptr @_ZNKSt6vectorIN2cv6Point_IfEESaIS2_EEixEm(ptr noundef nonnull align 8 dereferenceable(24) %0, i64 noundef %1) #4 comdat align 2 {
  %3 = alloca ptr, align 8
  %4 = alloca i64, align 8
  store ptr %0, ptr %3, align 8, !tbaa !22
  store i64 %1, ptr %4, align 8, !tbaa !52
  %5 = load ptr, ptr %3, align 8
  %6 = getelementptr inbounds nuw %"struct.std::_Vector_base", ptr %5, i32 0, i32 0
  %7 = getelementptr inbounds nuw %"struct.std::_Vector_base<cv::Point_<float>, std::allocator<cv::Point_<float>>>::_Vector_impl_data", ptr %6, i32 0, i32 0
  %8 = load ptr, ptr %7, align 8, !tbaa !26
  %9 = load i64, ptr %4, align 8, !tbaa !52
  %10 = getelementptr inbounds nuw %"class.cv::Point_", ptr %8, i64 %9
  ret ptr %10
}

; Function Attrs: inlinehint mustprogress nounwind uwtable
define linkonce_odr hidden void @_ZN2cv6Point_IfEC2Ev(ptr noundef nonnull align 4 dereferenceable(8) %0) unnamed_addr #7 comdat align 2 {
  %2 = alloca ptr, align 8
  store ptr %0, ptr %2, align 8, !tbaa !93
  %3 = load ptr, ptr %2, align 8
  %4 = getelementptr inbounds nuw %"class.cv::Point_", ptr %3, i32 0, i32 0
  store float 0.000000e+00, ptr %4, align 4, !tbaa !94
  %5 = getelementptr inbounds nuw %"class.cv::Point_", ptr %3, i32 0, i32 1
  store float 0.000000e+00, ptr %5, align 4, !tbaa !97
  ret void
}

; Function Attrs: mustprogress uwtable
define internal noundef zeroext i1 @_ZN20minEnclosingTriangleL5gammaEjRN2cv6Point_IfEERKSt6vectorIS2_SaIS2_EEjjj(i32 noundef %0, ptr noundef nonnull align 4 dereferenceable(8) %1, ptr noundef nonnull align 8 dereferenceable(24) %2, i32 noundef %3, i32 noundef %4, i32 noundef %5) #0 {
  %7 = alloca i1, align 1
  %8 = alloca i32, align 4
  %9 = alloca ptr, align 8
  %10 = alloca ptr, align 8
  %11 = alloca i32, align 4
  %12 = alloca i32, align 4
  %13 = alloca i32, align 4
  %14 = alloca %"class.cv::Point_", align 4
  %15 = alloca %"class.cv::Point_", align 4
  %16 = alloca i32, align 4
  store i32 %0, ptr %8, align 4, !tbaa !80
  store ptr %1, ptr %9, align 8, !tbaa !93
  store ptr %2, ptr %10, align 8, !tbaa !22
  store i32 %3, ptr %11, align 4, !tbaa !80
  store i32 %4, ptr %12, align 4, !tbaa !80
  store i32 %5, ptr %13, align 4, !tbaa !80
  call void @llvm.lifetime.start.p0(i64 8, ptr %14) #16
  call void @_ZN2cv6Point_IfEC2Ev(ptr noundef nonnull align 4 dereferenceable(8) %14)
  call void @llvm.lifetime.start.p0(i64 8, ptr %15) #16
  call void @_ZN2cv6Point_IfEC2Ev(ptr noundef nonnull align 4 dereferenceable(8) %15)
  %17 = load ptr, ptr %10, align 8, !tbaa !22
  %18 = load i32, ptr %11, align 4, !tbaa !80
  %19 = load i32, ptr %13, align 4, !tbaa !80
  %20 = load i32, ptr %8, align 4, !tbaa !80
  %21 = load ptr, ptr %10, align 8, !tbaa !22
  %22 = load i32, ptr %12, align 4, !tbaa !80
  %23 = zext i32 %22 to i64
  %24 = call noundef nonnull align 4 dereferenceable(8) ptr @_ZNKSt6vectorIN2cv6Point_IfEESaIS2_EEixEm(ptr noundef nonnull align 8 dereferenceable(24) %21, i64 noundef %23) #16
  %25 = load ptr, ptr %10, align 8, !tbaa !22
  %26 = load i32, ptr %12, align 4, !tbaa !80
  %27 = load i32, ptr %11, align 4, !tbaa !80
  %28 = call noundef i32 @_ZN20minEnclosingTriangleL11predecessorEjj(i32 noundef %26, i32 noundef %27)
  %29 = zext i32 %28 to i64
  %30 = call noundef nonnull align 4 dereferenceable(8) ptr @_ZNKSt6vectorIN2cv6Point_IfEESaIS2_EEixEm(ptr noundef nonnull align 8 dereferenceable(24) %25, i64 noundef %29) #16
  %31 = load ptr, ptr %10, align 8, !tbaa !22
  %32 = load i32, ptr %13, align 4, !tbaa !80
  %33 = zext i32 %32 to i64
  %34 = call noundef nonnull align 4 dereferenceable(8) ptr @_ZNKSt6vectorIN2cv6Point_IfEESaIS2_EEixEm(ptr noundef nonnull align 8 dereferenceable(24) %31, i64 noundef %33) #16
  %35 = load ptr, ptr %10, align 8, !tbaa !22
  %36 = load i32, ptr %13, align 4, !tbaa !80
  %37 = load i32, ptr %11, align 4, !tbaa !80
  %38 = call noundef i32 @_ZN20minEnclosingTriangleL11predecessorEjj(i32 noundef %36, i32 noundef %37)
  %39 = zext i32 %38 to i64
  %40 = call noundef nonnull align 4 dereferenceable(8) ptr @_ZNKSt6vectorIN2cv6Point_IfEESaIS2_EEixEm(ptr noundef nonnull align 8 dereferenceable(24) %35, i64 noundef %39) #16
  %41 = call noundef zeroext i1 @_ZN20minEnclosingTriangleL27findGammaIntersectionPointsERKSt6vectorIN2cv6Point_IfEESaIS3_EEjjjRKS3_S9_S9_S9_RS3_SA_(ptr noundef nonnull align 8 dereferenceable(24) %17, i32 noundef %18, i32 noundef %19, i32 noundef %20, ptr noundef nonnull align 4 dereferenceable(8) %24, ptr noundef nonnull align 4 dereferenceable(8) %30, ptr noundef nonnull align 4 dereferenceable(8) %34, ptr noundef nonnull align 4 dereferenceable(8) %40, ptr noundef nonnull align 4 dereferenceable(8) %14, ptr noundef nonnull align 4 dereferenceable(8) %15)
  br i1 %41, label %43, label %42

42:                                               ; preds = %6
  store i1 false, ptr %7, align 1
  store i32 1, ptr %16, align 4
  br label %66

43:                                               ; preds = %6
  %44 = load ptr, ptr %10, align 8, !tbaa !22
  %45 = load i32, ptr %13, align 4, !tbaa !80
  %46 = load i32, ptr %11, align 4, !tbaa !80
  %47 = call noundef i32 @_ZN20minEnclosingTriangleL9successorEjj(i32 noundef %45, i32 noundef %46)
  %48 = zext i32 %47 to i64
  %49 = call noundef nonnull align 4 dereferenceable(8) ptr @_ZNKSt6vectorIN2cv6Point_IfEESaIS2_EEixEm(ptr noundef nonnull align 8 dereferenceable(24) %44, i64 noundef %48) #16
  %50 = load ptr, ptr %10, align 8, !tbaa !22
  %51 = load i32, ptr %13, align 4, !tbaa !80
  %52 = zext i32 %51 to i64
  %53 = call noundef nonnull align 4 dereferenceable(8) ptr @_ZNKSt6vectorIN2cv6Point_IfEESaIS2_EEixEm(ptr noundef nonnull align 8 dereferenceable(24) %50, i64 noundef %52) #16
  %54 = load ptr, ptr %10, align 8, !tbaa !22
  %55 = load i32, ptr %13, align 4, !tbaa !80
  %56 = load i32, ptr %11, align 4, !tbaa !80
  %57 = call noundef i32 @_ZN20minEnclosingTriangleL11predecessorEjj(i32 noundef %55, i32 noundef %56)
  %58 = zext i32 %57 to i64
  %59 = call noundef nonnull align 4 dereferenceable(8) ptr @_ZNKSt6vectorIN2cv6Point_IfEESaIS2_EEixEm(ptr noundef nonnull align 8 dereferenceable(24) %54, i64 noundef %58) #16
  %60 = call noundef zeroext i1 @_ZN20minEnclosingTriangleL22areOnTheSameSideOfLineERKN2cv6Point_IfEES4_S4_S4_(ptr noundef nonnull align 4 dereferenceable(8) %14, ptr noundef nonnull align 4 dereferenceable(8) %49, ptr noundef nonnull align 4 dereferenceable(8) %53, ptr noundef nonnull align 4 dereferenceable(8) %59)
  br i1 %60, label %61, label %63

61:                                               ; preds = %43
  %62 = load ptr, ptr %9, align 8, !tbaa !93
  call void @llvm.memcpy.p0.p0.i64(ptr align 4 %62, ptr align 4 %14, i64 8, i1 false), !tbaa.struct !102
  br label %65

63:                                               ; preds = %43
  %64 = load ptr, ptr %9, align 8, !tbaa !93
  call void @llvm.memcpy.p0.p0.i64(ptr align 4 %64, ptr align 4 %15, i64 8, i1 false), !tbaa.struct !102
  br label %65

65:                                               ; preds = %63, %61
  store i1 true, ptr %7, align 1
  store i32 1, ptr %16, align 4
  br label %66

66:                                               ; preds = %65, %42
  call void @llvm.lifetime.end.p0(i64 8, ptr %15) #16
  call void @llvm.lifetime.end.p0(i64 8, ptr %14) #16
  %67 = load i1, ptr %7, align 1
  ret i1 %67
}