; Function Attrs: mustprogress uwtable
define internal fastcc noundef zeroext i1 @_ZN20minEnclosingTriangleL5gammaEjRN2cv6Point_IfEERKSt6vectorIS2_SaIS2_EEjjj(i32 noundef %0, ptr noundef nonnull writeonly align 4 captures(none) dereferenceable(8) %1, ptr noundef nonnull readonly align 8 captures(none) dereferenceable(24) %2, i32 noundef %3, i32 noundef %4, i32 noundef %5) unnamed_addr #4 {
  %7 = alloca double, align 8
  %8 = alloca double, align 8
  %9 = alloca double, align 8
  %10 = alloca %"class.cv::Point_", align 8
  %11 = alloca %"class.cv::Point_", align 8
  call void @llvm.lifetime.start.p0(i64 8, ptr nonnull %10) #17
  store float 0.000000e+00, ptr %10, align 8, !tbaa !24
  %12 = getelementptr inbounds nuw i8, ptr %10, i64 4
  store float 0.000000e+00, ptr %12, align 4, !tbaa !27
  call void @llvm.lifetime.start.p0(i64 8, ptr nonnull %11) #17
  store float 0.000000e+00, ptr %11, align 8, !tbaa !24
  %13 = getelementptr inbounds nuw i8, ptr %11, i64 4
  store float 0.000000e+00, ptr %13, align 4, !tbaa !27
  %14 = zext i32 %4 to i64
  %15 = load ptr, ptr %2, align 8, !tbaa !20
  %16 = getelementptr inbounds nuw %"class.cv::Point_", ptr %15, i64 %14
  %17 = icmp eq i32 %4, 0
  %.v.i = select i1 %17, i32 %3, i32 %4
  %18 = add i32 %.v.i, -1
  %19 = zext i32 %18 to i64
  %20 = getelementptr inbounds nuw %"class.cv::Point_", ptr %15, i64 %19
  %21 = zext i32 %5 to i64
  %22 = getelementptr inbounds nuw %"class.cv::Point_", ptr %15, i64 %21
  %23 = icmp eq i32 %5, 0
  %.v.i27 = select i1 %23, i32 %3, i32 %5
  %24 = add i32 %.v.i27, -1
  %25 = zext i32 %24 to i64
  %26 = getelementptr inbounds nuw %"class.cv::Point_", ptr %15, i64 %25
  %27 = call fastcc noundef zeroext i1 @_ZN20minEnclosingTriangleL27findGammaIntersectionPointsERKSt6vectorIN2cv6Point_IfEESaIS3_EEjjjRKS3_S9_S9_S9_RS3_SA_(ptr noundef nonnull align 8 dereferenceable(24) %2, i32 noundef %3, i32 noundef %5, i32 noundef %0, ptr noundef nonnull align 4 dereferenceable(8) %16, ptr noundef nonnull align 4 dereferenceable(8) %20, ptr noundef nonnull align 4 dereferenceable(8) %22, ptr noundef nonnull align 4 dereferenceable(8) %26, ptr noundef nonnull align 4 dereferenceable(8) %10, ptr noundef nonnull align 4 dereferenceable(8) %11)
  br i1 %27, label %28, label %63

28:                                               ; preds = %6
  %29 = add i32 %5, 1
  %30 = urem i32 %29, %3
  %31 = zext i32 %30 to i64
  %32 = load ptr, ptr %2, align 8, !tbaa !20
  %33 = getelementptr inbounds nuw %"class.cv::Point_", ptr %32, i64 %31
  %34 = getelementptr inbounds nuw %"class.cv::Point_", ptr %32, i64 %21
  %35 = getelementptr inbounds nuw %"class.cv::Point_", ptr %32, i64 %25
  %.val = load float, ptr %34, align 4, !tbaa !24
  %36 = getelementptr i8, ptr %34, i64 4
  %.val24 = load float, ptr %36, align 4
  %.val25 = load float, ptr %35, align 4, !tbaa !24
  %37 = getelementptr i8, ptr %35, i64 4
  %.val26 = load float, ptr %37, align 4
  call void @llvm.lifetime.start.p0(i64 8, ptr nonnull %7) #17
  call void @llvm.lifetime.start.p0(i64 8, ptr nonnull %8) #17
  call void @llvm.lifetime.start.p0(i64 8, ptr nonnull %9) #17
  call fastcc void @_ZN20minEnclosingTriangleL30lineEquationDeterminedByPointsERKN2cv6Point_IfEES4_RdS5_S5_(float %.val, float %.val24, float %.val25, float %.val26, ptr noundef nonnull align 8 dereferenceable(8) %7, ptr noundef nonnull align 8 dereferenceable(8) %8, ptr noundef nonnull align 8 dereferenceable(8) %9)
  %38 = load double, ptr %7, align 8, !tbaa !32
  %39 = load float, ptr %10, align 8, !tbaa !24
  %40 = fpext float %39 to double
  %41 = load double, ptr %8, align 8, !tbaa !32
  %42 = load float, ptr %12, align 4, !tbaa !27
  %43 = fpext float %42 to double
  %44 = fmul double %41, %43
  %45 = tail call double @llvm.fmuladd.f64(double %38, double %40, double %44)
  %46 = load double, ptr %9, align 8, !tbaa !32
  %47 = fadd double %46, %45
  %48 = load float, ptr %33, align 4, !tbaa !24
  %49 = fpext float %48 to double
  %50 = getelementptr inbounds nuw i8, ptr %33, i64 4
  %51 = load float, ptr %50, align 4, !tbaa !27
  %52 = fpext float %51 to double
  %53 = fmul double %41, %52
  %54 = tail call double @llvm.fmuladd.f64(double %38, double %49, double %53)
  %55 = fadd double %46, %54
  %56 = fcmp ogt double %47, 0.000000e+00
  %57 = fcmp ogt double %55, 0.000000e+00
  %58 = fcmp olt double %55, 0.000000e+00
  %59 = fcmp uge double %47, 0.000000e+00
  %60 = xor i1 %59, %58
  %not..i = xor i1 %57, true
  %61 = and i1 %60, %not..i
  %62 = select i1 %56, i1 %57, i1 %61
  call void @llvm.lifetime.end.p0(i64 8, ptr nonnull %9) #17
  call void @llvm.lifetime.end.p0(i64 8, ptr nonnull %8) #17
  call void @llvm.lifetime.end.p0(i64 8, ptr nonnull %7) #17
  %.val29 = load i64, ptr %10, align 8
  %.val30 = load i64, ptr %11, align 8
  %storemerge = select i1 %62, i64 %.val29, i64 %.val30
  store i64 %storemerge, ptr %1, align 4
  br label %63

63:                                               ; preds = %6, %28
  call void @llvm.lifetime.end.p0(i64 8, ptr nonnull %11) #17
  call void @llvm.lifetime.end.p0(i64 8, ptr nonnull %10) #17
  ret i1 %27
}